; Function Attrs: cold nounwind optsize uwtable
define internal noundef i32 @vvc_decode_free(ptr noundef readonly captures(none) %0) #1 {
  %2 = getelementptr inbounds nuw i8, ptr %0, i64 32
  %3 = load ptr, ptr %2, align 8, !tbaa !20
  %4 = getelementptr inbounds nuw i8, ptr %3, i64 16
  tail call void @ff_cbs_fragment_free(ptr noundef nonnull %4) #10
  tail call void @vvc_decode_flush(ptr noundef %0) #11
  %5 = getelementptr inbounds nuw i8, ptr %3, i64 904
  tail call void @ff_vvc_executor_free(ptr noundef nonnull %5) #10
  %6 = getelementptr inbounds nuw i8, ptr %3, i64 912
  %7 = load ptr, ptr %6, align 8, !tbaa !53
  %.not = icmp eq ptr %7, null
  br i1 %.not, label %17, label %.preheader

.preheader:                                       ; preds = %1
  %8 = getelementptr inbounds nuw i8, ptr %3, i64 920
  %9 = load i32, ptr %8, align 8, !tbaa !52
  %10 = icmp sgt i32 %9, 0
  br i1 %10, label %.lr.ph, label %._crit_edge

._crit_edge.loopexit:                             ; preds = %.lr.ph
  %.pre = load ptr, ptr %6, align 8, !tbaa !53
  br label %._crit_edge

._crit_edge:                                      ; preds = %._crit_edge.loopexit, %.preheader
  %11 = phi ptr [ %.pre, %._crit_edge.loopexit ], [ %7, %.preheader ]
  tail call void @av_free(ptr noundef %11) #10
  br label %17

.lr.ph:                                           ; preds = %.preheader, %.lr.ph
  %indvars.iv = phi i64 [ %indvars.iv.next, %.lr.ph ], [ 0, %.preheader ]
  %12 = load ptr, ptr %6, align 8, !tbaa !53
  %13 = getelementptr inbounds nuw %struct.VVCFrameContext, ptr %12, i64 %indvars.iv
  tail call fastcc void @frame_context_free(ptr noundef %13) #11
  %indvars.iv.next = add nuw nsw i64 %indvars.iv, 1
  %14 = load i32, ptr %8, align 8, !tbaa !52
  %15 = sext i32 %14 to i64
  %16 = icmp slt i64 %indvars.iv.next, %15
  br i1 %16, label %.lr.ph, label %._crit_edge.loopexit, !llvm.loop !271

17:                                               ; preds = %._crit_edge, %1
  %18 = getelementptr inbounds nuw i8, ptr %3, i64 64
  tail call void @ff_vvc_ps_uninit(ptr noundef nonnull %18) #10
  %19 = getelementptr inbounds nuw i8, ptr %3, i64 8
  tail call void @ff_cbs_close(ptr noundef nonnull %19) #10
  ret i32 0
}